target datalayout = "e-m:e-p270:32:32-p271:32:32-p272:64:64-i64:64-i128:128-f80:128-n8:16:32:64-S128"
target triple = "x86_64-pc-linux-gnu"

%struct.yyguts_t = type { ptr, ptr, ptr, i64, i64, ptr, i8, i32, i32, ptr, i32, i32, i32, i32, i32, ptr, i32, ptr, i32, i32, ptr, i32, i32 }
%struct.yy_buffer_state = type { ptr, ptr, ptr, i32, i32, i32, i32, i32, i32, i32, i32, i32 }

; Function Attrs: nounwind null_pointer_is_valid sspstrong uwtable
define internal void @Dtd_PreParse__load_buffer_state(ptr noundef %0) #2 {
  %2 = alloca ptr, align 8
  %3 = alloca ptr, align 8
  store ptr %0, ptr %2, align 8
  call void @llvm.lifetime.start.p0(i64 8, ptr %3) #16
  %4 = load ptr, ptr %2, align 8
  store ptr %4, ptr %3, align 8
  %5 = load ptr, ptr %3, align 8
  %6 = getelementptr inbounds nuw %struct.yyguts_t, ptr %5, i32 0, i32 5
  %7 = load ptr, ptr %6, align 8
  %8 = load ptr, ptr %3, align 8
  %9 = getelementptr inbounds nuw %struct.yyguts_t, ptr %8, i32 0, i32 3
  %10 = load i64, ptr %9, align 8
  %11 = getelementptr ptr, ptr %7, i64 %10
  %12 = load ptr, ptr %11, align 8
  %13 = getelementptr inbounds nuw %struct.yy_buffer_state, ptr %12, i32 0, i32 4
  %14 = load i32, ptr %13, align 4
  %15 = load ptr, ptr %3, align 8
  %16 = getelementptr inbounds nuw %struct.yyguts_t, ptr %15, i32 0, i32 7
  store i32 %14, ptr %16, align 4
  %17 = load ptr, ptr %3, align 8
  %18 = getelementptr inbounds nuw %struct.yyguts_t, ptr %17, i32 0, i32 5
  %19 = load ptr, ptr %18, align 8
  %20 = load ptr, ptr %3, align 8
  %21 = getelementptr inbounds nuw %struct.yyguts_t, ptr %20, i32 0, i32 3
  %22 = load i64, ptr %21, align 8
  %23 = getelementptr ptr, ptr %19, i64 %22
  %24 = load ptr, ptr %23, align 8
  %25 = getelementptr inbounds nuw %struct.yy_buffer_state, ptr %24, i32 0, i32 2
  %26 = load ptr, ptr %25, align 8
  %27 = load ptr, ptr %3, align 8
  %28 = getelementptr inbounds nuw %struct.yyguts_t, ptr %27, i32 0, i32 9
  store ptr %26, ptr %28, align 8
  %29 = load ptr, ptr %3, align 8
  %30 = getelementptr inbounds nuw %struct.yyguts_t, ptr %29, i32 0, i32 20
  store ptr %26, ptr %30, align 8
  %31 = load ptr, ptr %3, align 8
  %32 = getelementptr inbounds nuw %struct.yyguts_t, ptr %31, i32 0, i32 5
  %33 = load ptr, ptr %32, align 8
  %34 = load ptr, ptr %3, align 8
  %35 = getelementptr inbounds nuw %struct.yyguts_t, ptr %34, i32 0, i32 3
  %36 = load i64, ptr %35, align 8
  %37 = getelementptr ptr, ptr %33, i64 %36
  %38 = load ptr, ptr %37, align 8
  %39 = getelementptr inbounds nuw %struct.yy_buffer_state, ptr %38, i32 0, i32 0
  %40 = load ptr, ptr %39, align 8
  %41 = load ptr, ptr %3, align 8
  %42 = getelementptr inbounds nuw %struct.yyguts_t, ptr %41, i32 0, i32 1
  store ptr %40, ptr %42, align 8
  %43 = load ptr, ptr %3, align 8
  %44 = getelementptr inbounds nuw %struct.yyguts_t, ptr %43, i32 0, i32 9
  %45 = load ptr, ptr %44, align 8
  %46 = load i8, ptr %45, align 1
  %47 = load ptr, ptr %3, align 8
  %48 = getelementptr inbounds nuw %struct.yyguts_t, ptr %47, i32 0, i32 6
  store i8 %46, ptr %48, align 8
  call void @llvm.lifetime.end.p0(i64 8, ptr %3) #16
  ret void
}

; Function Attrs: null_pointer_is_valid sspstrong uwtable
define hidden void @Dtd_PreParse_push_buffer_state(ptr noundef %0, ptr noundef %1) #0 {
  %3 = alloca ptr, align 8
  %4 = alloca ptr, align 8
  %5 = alloca ptr, align 8
  %6 = alloca i32, align 4
  store ptr %0, ptr %3, align 8
  store ptr %1, ptr %4, align 8
  call void @llvm.lifetime.start.p0(i64 8, ptr %5) #16
  %7 = load ptr, ptr %4, align 8
  store ptr %7, ptr %5, align 8
  %8 = load ptr, ptr %3, align 8
  %9 = icmp eq ptr %8, null
  br i1 %9, label %10, label %11

10:                                               ; preds = %2
  store i32 1, ptr %6, align 4
  br label %92

11:                                               ; preds = %2
  %12 = load ptr, ptr %4, align 8
  call void @Dtd_PreParse_ensure_buffer_stack(ptr noundef %12)
  %13 = load ptr, ptr %5, align 8
  %14 = getelementptr inbounds nuw %struct.yyguts_t, ptr %13, i32 0, i32 5
  %15 = load ptr, ptr %14, align 8
  %16 = icmp ne ptr %15, null
  br i1 %16, label %17, label %27

17:                                               ; preds = %11
  %18 = load ptr, ptr %5, align 8
  %19 = getelementptr inbounds nuw %struct.yyguts_t, ptr %18, i32 0, i32 5
  %20 = load ptr, ptr %19, align 8
  %21 = load ptr, ptr %5, align 8
  %22 = getelementptr inbounds nuw %struct.yyguts_t, ptr %21, i32 0, i32 3
  %23 = load i64, ptr %22, align 8
  %24 = getelementptr ptr, ptr %20, i64 %23
  %25 = load ptr, ptr %24, align 8
  %26 = icmp ne ptr %25, null
  br i1 %26, label %28, label %59

27:                                               ; preds = %11
  br i1 false, label %28, label %59

28:                                               ; preds = %27, %17
  %29 = load ptr, ptr %5, align 8
  %30 = getelementptr inbounds nuw %struct.yyguts_t, ptr %29, i32 0, i32 6
  %31 = load i8, ptr %30, align 8
  %32 = load ptr, ptr %5, align 8
  %33 = getelementptr inbounds nuw %struct.yyguts_t, ptr %32, i32 0, i32 9
  %34 = load ptr, ptr %33, align 8
  store i8 %31, ptr %34, align 1
  %35 = load ptr, ptr %5, align 8
  %36 = getelementptr inbounds nuw %struct.yyguts_t, ptr %35, i32 0, i32 9
  %37 = load ptr, ptr %36, align 8
  %38 = load ptr, ptr %5, align 8
  %39 = getelementptr inbounds nuw %struct.yyguts_t, ptr %38, i32 0, i32 5
  %40 = load ptr, ptr %39, align 8
  %41 = load ptr, ptr %5, align 8
  %42 = getelementptr inbounds nuw %struct.yyguts_t, ptr %41, i32 0, i32 3
  %43 = load i64, ptr %42, align 8
  %44 = getelementptr ptr, ptr %40, i64 %43
  %45 = load ptr, ptr %44, align 8
  %46 = getelementptr inbounds nuw %struct.yy_buffer_state, ptr %45, i32 0, i32 2
  store ptr %37, ptr %46, align 8
  %47 = load ptr, ptr %5, align 8
  %48 = getelementptr inbounds nuw %struct.yyguts_t, ptr %47, i32 0, i32 7
  %49 = load i32, ptr %48, align 4
  %50 = load ptr, ptr %5, align 8
  %51 = getelementptr inbounds nuw %struct.yyguts_t, ptr %50, i32 0, i32 5
  %52 = load ptr, ptr %51, align 8
  %53 = load ptr, ptr %5, align 8
  %54 = getelementptr inbounds nuw %struct.yyguts_t, ptr %53, i32 0, i32 3
  %55 = load i64, ptr %54, align 8
  %56 = getelementptr ptr, ptr %52, i64 %55
  %57 = load ptr, ptr %56, align 8
  %58 = getelementptr inbounds nuw %struct.yy_buffer_state, ptr %57, i32 0, i32 4
  store i32 %49, ptr %58, align 4
  br label %59

59:                                               ; preds = %28, %27, %17
  %60 = load ptr, ptr %5, align 8
  %61 = getelementptr inbounds nuw %struct.yyguts_t, ptr %60, i32 0, i32 5
  %62 = load ptr, ptr %61, align 8
  %63 = icmp ne ptr %62, null
  br i1 %63, label %64, label %74

64:                                               ; preds = %59
  %65 = load ptr, ptr %5, align 8
  %66 = getelementptr inbounds nuw %struct.yyguts_t, ptr %65, i32 0, i32 5
  %67 = load ptr, ptr %66, align 8
  %68 = load ptr, ptr %5, align 8
  %69 = getelementptr inbounds nuw %struct.yyguts_t, ptr %68, i32 0, i32 3
  %70 = load i64, ptr %69, align 8
  %71 = getelementptr ptr, ptr %67, i64 %70
  %72 = load ptr, ptr %71, align 8
  %73 = icmp ne ptr %72, null
  br i1 %73, label %75, label %80

74:                                               ; preds = %59
  br i1 false, label %75, label %80

75:                                               ; preds = %74, %64
  %76 = load ptr, ptr %5, align 8
  %77 = getelementptr inbounds nuw %struct.yyguts_t, ptr %76, i32 0, i32 3
  %78 = load i64, ptr %77, align 8
  %79 = add i64 %78, 1
  store i64 %79, ptr %77, align 8
  br label %80

80:                                               ; preds = %75, %74, %64
  %81 = load ptr, ptr %3, align 8
  %82 = load ptr, ptr %5, align 8
  %83 = getelementptr inbounds nuw %struct.yyguts_t, ptr %82, i32 0, i32 5
  %84 = load ptr, ptr %83, align 8
  %85 = load ptr, ptr %5, align 8
  %86 = getelementptr inbounds nuw %struct.yyguts_t, ptr %85, i32 0, i32 3
  %87 = load i64, ptr %86, align 8
  %88 = getelementptr ptr, ptr %84, i64 %87
  store ptr %81, ptr %88, align 8
  %89 = load ptr, ptr %4, align 8
  call void @Dtd_PreParse__load_buffer_state(ptr noundef %89)
  %90 = load ptr, ptr %5, align 8
  %91 = getelementptr inbounds nuw %struct.yyguts_t, ptr %90, i32 0, i32 12
  store i32 1, ptr %91, align 8
  store i32 0, ptr %6, align 4
  br label %92

92:                                               ; preds = %80, %10
  call void @llvm.lifetime.end.p0(i64 8, ptr %5) #16
  %93 = load i32, ptr %6, align 4
  switch i32 %93, label %95 [
    i32 0, label %94
    i32 1, label %94
  ]

94:                                               ; preds = %92, %92
  ret void

95:                                               ; preds = %92
  unreachable
}